; Function Attrs: nounwind uwtable
define hidden void @VP8LBitWriterWipeOut(ptr noundef captures(address_is_null) %0) local_unnamed_addr #0 {
  %.not = icmp eq ptr %0, null
  br i1 %.not, label %5, label %2

2:                                                ; preds = %1
  %3 = getelementptr inbounds nuw i8, ptr %0, i64 16
  %4 = load ptr, ptr %3, align 8, !tbaa !24
  tail call void @WebPSafeFree(ptr noundef %4) #7
  tail call void @llvm.memset.p0.i64(ptr noundef nonnull align 8 dereferenceable(48) %0, i8 0, i64 48, i1 false)
  br label %5

5:                                                ; preds = %2, %1
  ret void
}